target datalayout = "e-m:e-p270:32:32-p271:32:32-p272:64:64-i64:64-i128:128-f80:128-n8:16:32:64-S128"
target triple = "x86_64-pc-linux-gnu"

; Function Attrs: inlinehint nounwind uwtable
define internal i64 @mi_bitmap_index_create_ex(i64 noundef %0, i64 noundef %1) #0 {
  %3 = alloca i64, align 8
  %4 = alloca i64, align 8
  store i64 %0, ptr %3, align 8, !tbaa !7
  store i64 %1, ptr %4, align 8, !tbaa !7
  %5 = load i64, ptr %3, align 8, !tbaa !7
  %6 = mul i64 %5, 64
  %7 = load i64, ptr %4, align 8, !tbaa !7
  %8 = add i64 %6, %7
  ret i64 %8
}

; Function Attrs: inlinehint nounwind uwtable
define internal i64 @mi_clz(i64 noundef %0) #0 {
  %2 = alloca i64, align 8
  %3 = alloca i64, align 8
  store i64 %0, ptr %3, align 8, !tbaa !7
  %4 = load i64, ptr %3, align 8, !tbaa !7
  %5 = icmp eq i64 %4, 0
  br i1 %5, label %6, label %7

6:                                                ; preds = %1
  store i64 64, ptr %2, align 8
  br label %12

7:                                                ; preds = %1
  %8 = load i64, ptr %3, align 8, !tbaa !7
  %9 = call i64 @llvm.ctlz.i64(i64 %8, i1 true)
  %10 = trunc i64 %9 to i32
  %11 = sext i32 %10 to i64
  store i64 %11, ptr %2, align 8
  br label %12

12:                                               ; preds = %7, %6
  %13 = load i64, ptr %2, align 8
  ret i64 %13
}

; Function Attrs: inlinehint nounwind uwtable
define internal i64 @mi_bitmap_index_create(i64 noundef %0, i64 noundef %1) #0 {
  %3 = alloca i64, align 8
  %4 = alloca i64, align 8
  store i64 %0, ptr %3, align 8, !tbaa !7
  store i64 %1, ptr %4, align 8, !tbaa !7
  %5 = load i64, ptr %3, align 8, !tbaa !7
  %6 = load i64, ptr %4, align 8, !tbaa !7
  %7 = call i64 @mi_bitmap_index_create_ex(i64 noundef %5, i64 noundef %6) #6
  ret i64 %7
}

; Function Attrs: inlinehint nounwind uwtable
define internal i64 @mi_ctz(i64 noundef %0) #0 {
  %2 = alloca i64, align 8
  %3 = alloca i64, align 8
  store i64 %0, ptr %3, align 8, !tbaa !7
  %4 = load i64, ptr %3, align 8, !tbaa !7
  %5 = icmp eq i64 %4, 0
  br i1 %5, label %6, label %7

6:                                                ; preds = %1
  store i64 64, ptr %2, align 8
  br label %12

7:                                                ; preds = %1
  %8 = load i64, ptr %3, align 8, !tbaa !7
  %9 = call i64 @llvm.cttz.i64(i64 %8, i1 true)
  %10 = trunc i64 %9 to i32
  %11 = sext i32 %10 to i64
  store i64 %11, ptr %2, align 8
  br label %12

12:                                               ; preds = %7, %6
  %13 = load i64, ptr %2, align 8
  ret i64 %13
}

; Function Attrs: inlinehint nounwind uwtable
define internal i64 @mi_bitmap_mask_(i64 noundef %0, i64 noundef %1) #0 {
  %3 = alloca i64, align 8
  %4 = alloca i64, align 8
  %5 = alloca i64, align 8
  store i64 %0, ptr %4, align 8, !tbaa !7
  store i64 %1, ptr %5, align 8, !tbaa !7
  %6 = load i64, ptr %4, align 8, !tbaa !7
  %7 = icmp uge i64 %6, 64
  br i1 %7, label %8, label %9

8:                                                ; preds = %2
  store i64 -1, ptr %3, align 8
  br label %19

9:                                                ; preds = %2
  %10 = load i64, ptr %4, align 8, !tbaa !7
  %11 = icmp eq i64 %10, 0
  br i1 %11, label %12, label %13

12:                                               ; preds = %9
  store i64 0, ptr %3, align 8
  br label %19

13:                                               ; preds = %9
  %14 = load i64, ptr %4, align 8, !tbaa !7
  %15 = shl i64 1, %14
  %16 = sub i64 %15, 1
  %17 = load i64, ptr %5, align 8, !tbaa !7
  %18 = shl i64 %16, %17
  store i64 %18, ptr %3, align 8
  br label %19

19:                                               ; preds = %13, %12, %8
  %20 = load i64, ptr %3, align 8
  ret i64 %20
}

; Function Attrs: inlinehint nounwind uwtable
define hidden zeroext i1 @_mi_bitmap_try_find_claim_field(ptr noundef %0, i64 noundef %1, i64 noundef %2, ptr noundef %3) #0 {
  %5 = alloca i1, align 1
  %6 = alloca ptr, align 8
  %7 = alloca i64, align 8
  %8 = alloca i64, align 8
  %9 = alloca ptr, align 8
  %10 = alloca ptr, align 8
  %11 = alloca i64, align 8
  %12 = alloca i64, align 8
  %13 = alloca i32, align 4
  %14 = alloca i64, align 8
  %15 = alloca i64, align 8
  %16 = alloca i64, align 8
  %17 = alloca i64, align 8
  %18 = alloca i64, align 8
  %19 = alloca i64, align 8
  %20 = alloca i64, align 8
  %21 = alloca i8, align 1
  %22 = alloca i64, align 8
  store ptr %0, ptr %6, align 8, !tbaa !3
  store i64 %1, ptr %7, align 8, !tbaa !7
  store i64 %2, ptr %8, align 8, !tbaa !7
  store ptr %3, ptr %9, align 8, !tbaa !9
  call void @llvm.lifetime.start.p0(i64 8, ptr %10) #5
  %23 = load ptr, ptr %6, align 8, !tbaa !3
  %24 = load i64, ptr %7, align 8, !tbaa !7
  %25 = getelementptr inbounds nuw i64, ptr %23, i64 %24
  store ptr %25, ptr %10, align 8, !tbaa !3
  call void @llvm.lifetime.start.p0(i64 8, ptr %11) #5
  %26 = load ptr, ptr %10, align 8, !tbaa !3
  %27 = load atomic i64, ptr %26 monotonic, align 8
  store i64 %27, ptr %12, align 8
  %28 = load i64, ptr %12, align 8, !tbaa !7
  store i64 %28, ptr %11, align 8, !tbaa !7
  %29 = load i64, ptr %11, align 8, !tbaa !7
  %30 = icmp eq i64 %29, -1
  br i1 %30, label %31, label %32

31:                                               ; preds = %4
  store i1 false, ptr %5, align 1
  store i32 1, ptr %13, align 4
  br label %100

32:                                               ; preds = %4
  call void @llvm.lifetime.start.p0(i64 8, ptr %14) #5
  %33 = load i64, ptr %8, align 8, !tbaa !7
  %34 = call i64 @mi_bitmap_mask_(i64 noundef %33, i64 noundef 0) #6
  store i64 %34, ptr %14, align 8, !tbaa !7
  call void @llvm.lifetime.start.p0(i64 8, ptr %15) #5
  %35 = load i64, ptr %8, align 8, !tbaa !7
  %36 = sub i64 64, %35
  store i64 %36, ptr %15, align 8, !tbaa !7
  call void @llvm.lifetime.start.p0(i64 8, ptr %16) #5
  %37 = load i64, ptr %11, align 8, !tbaa !7
  %38 = xor i64 %37, -1
  %39 = call i64 @mi_ctz(i64 noundef %38) #6
  store i64 %39, ptr %16, align 8, !tbaa !7
  call void @llvm.lifetime.start.p0(i64 8, ptr %17) #5
  %40 = load i64, ptr %14, align 8, !tbaa !7
  %41 = load i64, ptr %16, align 8, !tbaa !7
  %42 = shl i64 %40, %41
  store i64 %42, ptr %17, align 8, !tbaa !7
  br label %43

43:                                               ; preds = %97, %95, %32
  %44 = load i64, ptr %16, align 8, !tbaa !7
  %45 = load i64, ptr %15, align 8, !tbaa !7
  %46 = icmp ule i64 %44, %45
  br i1 %46, label %47, label %98

47:                                               ; preds = %43
  call void @llvm.lifetime.start.p0(i64 8, ptr %18) #5
  %48 = load i64, ptr %11, align 8, !tbaa !7
  %49 = load i64, ptr %17, align 8, !tbaa !7
  %50 = and i64 %48, %49
  store i64 %50, ptr %18, align 8, !tbaa !7
  %51 = load i64, ptr %18, align 8, !tbaa !7
  %52 = icmp eq i64 %51, 0
  br i1 %52, label %53, label %76

53:                                               ; preds = %47
  call void @llvm.lifetime.start.p0(i64 8, ptr %19) #5
  %54 = load i64, ptr %11, align 8, !tbaa !7
  %55 = load i64, ptr %17, align 8, !tbaa !7
  %56 = or i64 %54, %55
  store i64 %56, ptr %19, align 8, !tbaa !7
  %57 = load ptr, ptr %10, align 8, !tbaa !3
  %58 = load i64, ptr %19, align 8, !tbaa !7
  store i64 %58, ptr %20, align 8, !tbaa !7
  %59 = load i64, ptr %11, align 8
  %60 = load i64, ptr %20, align 8
  %61 = cmpxchg ptr %57, i64 %59, i64 %60 acq_rel acquire, align 8
  %62 = extractvalue { i64, i1 } %61, 0
  %63 = extractvalue { i64, i1 } %61, 1
  br i1 %63, label %65, label %64

64:                                               ; preds = %53
  store i64 %62, ptr %11, align 8
  br label %65

65:                                               ; preds = %64, %53
  %66 = zext i1 %63 to i8
  store i8 %66, ptr %21, align 1, !tbaa !11
  %67 = load i8, ptr %21, align 1, !tbaa !11, !range !13, !noundef !14
  %68 = trunc i8 %67 to i1
  br i1 %68, label %70, label %69

69:                                               ; preds = %65
  store i32 2, ptr %13, align 4
  br label %75, !llvm.loop !15

70:                                               ; preds = %65
  %71 = load i64, ptr %7, align 8, !tbaa !7
  %72 = load i64, ptr %16, align 8, !tbaa !7
  %73 = call i64 @mi_bitmap_index_create(i64 noundef %71, i64 noundef %72) #6
  %74 = load ptr, ptr %9, align 8, !tbaa !9
  store i64 %73, ptr %74, align 8, !tbaa !7
  store i1 true, ptr %5, align 1
  store i32 1, ptr %13, align 4
  br label %75

75:                                               ; preds = %70, %69
  call void @llvm.lifetime.end.p0(i64 8, ptr %19) #5
  br label %95

76:                                               ; preds = %47
  call void @llvm.lifetime.start.p0(i64 8, ptr %22) #5
  %77 = load i64, ptr %8, align 8, !tbaa !7
  %78 = icmp eq i64 %77, 1
  br i1 %78, label %79, label %80

79:                                               ; preds = %76
  br label %86

80:                                               ; preds = %76
  %81 = load i64, ptr %18, align 8, !tbaa !7
  %82 = call i64 @mi_clz(i64 noundef %81) #6
  %83 = sub i64 64, %82
  %84 = load i64, ptr %16, align 8, !tbaa !7
  %85 = sub i64 %83, %84
  br label %86

86:                                               ; preds = %80, %79
  %87 = phi i64 [ 1, %79 ], [ %85, %80 ]
  store i64 %87, ptr %22, align 8, !tbaa !7
  %88 = load i64, ptr %22, align 8, !tbaa !7
  %89 = load i64, ptr %16, align 8, !tbaa !7
  %90 = add i64 %89, %88
  store i64 %90, ptr %16, align 8, !tbaa !7
  %91 = load i64, ptr %22, align 8, !tbaa !7
  %92 = load i64, ptr %17, align 8, !tbaa !7
  %93 = shl i64 %92, %91
  store i64 %93, ptr %17, align 8, !tbaa !7
  call void @llvm.lifetime.end.p0(i64 8, ptr %22) #5
  br label %94

94:                                               ; preds = %86
  store i32 0, ptr %13, align 4
  br label %95

95:                                               ; preds = %94, %75
  call void @llvm.lifetime.end.p0(i64 8, ptr %18) #5
  %96 = load i32, ptr %13, align 4
  switch i32 %96, label %99 [
    i32 0, label %97
    i32 2, label %43
  ]

97:                                               ; preds = %95
  br label %43, !llvm.loop !15

98:                                               ; preds = %43
  store i1 false, ptr %5, align 1
  store i32 1, ptr %13, align 4
  br label %99

99:                                               ; preds = %98, %95
  call void @llvm.lifetime.end.p0(i64 8, ptr %17) #5
  call void @llvm.lifetime.end.p0(i64 8, ptr %16) #5
  call void @llvm.lifetime.end.p0(i64 8, ptr %15) #5
  call void @llvm.lifetime.end.p0(i64 8, ptr %14) #5
  br label %100

100:                                              ; preds = %99, %31
  call void @llvm.lifetime.end.p0(i64 8, ptr %11) #5
  call void @llvm.lifetime.end.p0(i64 8, ptr %10) #5
  %101 = load i1, ptr %5, align 1
  ret i1 %101
}