; Function Attrs: inlinehint nofree norecurse nounwind memory(argmem: readwrite) uwtable
define hidden noundef zeroext i1 @_mi_bitmap_try_find_claim_field(ptr noundef captures(none) %0, i64 noundef %1, i64 noundef %2, ptr noundef writeonly captures(none) %3) local_unnamed_addr #0 {
  %5 = getelementptr inbounds nuw i64, ptr %0, i64 %1
  %6 = load atomic i64, ptr %5 monotonic, align 8
  %7 = icmp eq i64 %6, -1
  br i1 %7, label %.loopexit, label %8

8:                                                ; preds = %4
  %9 = icmp ugt i64 %2, 63
  br i1 %9, label %mi_bitmap_mask_.exit, label %10

10:                                               ; preds = %8
  %11 = icmp eq i64 %2, 0
  br i1 %11, label %mi_bitmap_mask_.exit, label %12

12:                                               ; preds = %10
  %notmask.i = shl nsw i64 -1, %2
  %13 = xor i64 %notmask.i, -1
  br label %mi_bitmap_mask_.exit

mi_bitmap_mask_.exit:                             ; preds = %8, %10, %12
  %.0.i = phi i64 [ %13, %12 ], [ -1, %8 ], [ 0, %10 ]
  %14 = sub i64 64, %2
  %15 = xor i64 %6, -1
  %16 = tail call range(i64 0, 64) i64 @llvm.cttz.i64(i64 range(i64 1, 0) %15, i1 true)
  %.not.not50 = icmp ugt i64 %16, %14
  br i1 %.not.not50, label %.loopexit, label %.lr.ph

.lr.ph:                                           ; preds = %mi_bitmap_mask_.exit
  %17 = shl i64 %.0.i, %16
  %18 = icmp eq i64 %2, 1
  br i1 %18, label %.lr.ph.split.us, label %.lr.ph.split

.lr.ph.split.us:                                  ; preds = %.lr.ph, %29
  %.03353.us = phi i64 [ %.235.us, %29 ], [ %6, %.lr.ph ]
  %.03852.us = phi i64 [ %.139.us, %29 ], [ %16, %.lr.ph ]
  %.04051.us = phi i64 [ %.141.us, %29 ], [ %17, %.lr.ph ]
  %19 = and i64 %.03353.us, %.04051.us
  %20 = icmp eq i64 %19, 0
  br i1 %20, label %24, label %21

21:                                               ; preds = %.lr.ph.split.us
  %22 = add i64 %.03852.us, 1
  %23 = shl i64 %.04051.us, 1
  br label %29

24:                                               ; preds = %.lr.ph.split.us
  %25 = or i64 %.03353.us, %.04051.us
  %26 = cmpxchg ptr %5, i64 %.03353.us, i64 %25 acq_rel acquire, align 8
  %27 = extractvalue { i64, i1 } %26, 1
  %28 = extractvalue { i64, i1 } %26, 0
  br i1 %27, label %.thread, label %29, !llvm.loop !3

29:                                               ; preds = %21, %24
  %.141.us = phi i64 [ %23, %21 ], [ %.04051.us, %24 ]
  %.139.us = phi i64 [ %22, %21 ], [ %.03852.us, %24 ]
  %.235.us = phi i64 [ %.03353.us, %21 ], [ %28, %24 ]
  %.not.not.us = icmp ugt i64 %.139.us, %14
  br i1 %.not.not.us, label %.loopexit, label %.lr.ph.split.us

.lr.ph.split:                                     ; preds = %.lr.ph, %45
  %.03353 = phi i64 [ %.235, %45 ], [ %6, %.lr.ph ]
  %.03852 = phi i64 [ %.139, %45 ], [ %16, %.lr.ph ]
  %.04051 = phi i64 [ %.141, %45 ], [ %17, %.lr.ph ]
  %30 = and i64 %.03353, %.04051
  %31 = icmp eq i64 %30, 0
  br i1 %31, label %32, label %39

32:                                               ; preds = %.lr.ph.split
  %33 = or i64 %.03353, %.04051
  %34 = cmpxchg ptr %5, i64 %.03353, i64 %33 acq_rel acquire, align 8
  %35 = extractvalue { i64, i1 } %34, 1
  %36 = extractvalue { i64, i1 } %34, 0
  br i1 %35, label %.thread, label %45, !llvm.loop !3

.thread:                                          ; preds = %32, %24
  %.us-phi = phi i64 [ %.03852.us, %24 ], [ %.03852, %32 ]
  %37 = shl i64 %1, 6
  %38 = add i64 %.us-phi, %37
  store i64 %38, ptr %3, align 8, !tbaa !5
  br label %.loopexit

39:                                               ; preds = %.lr.ph.split
  %40 = tail call range(i64 0, 65) i64 @llvm.ctlz.i64(i64 %30, i1 true)
  %41 = add i64 %.03852, %40
  %42 = sub i64 64, %41
  %43 = add i64 %42, %.03852
  %44 = shl i64 %.04051, %42
  br label %45

45:                                               ; preds = %32, %39
  %.141 = phi i64 [ %44, %39 ], [ %.04051, %32 ]
  %.139 = phi i64 [ %43, %39 ], [ %.03852, %32 ]
  %.235 = phi i64 [ %.03353, %39 ], [ %36, %32 ]
  %.not.not = icmp ugt i64 %.139, %14
  br i1 %.not.not, label %.loopexit, label %.lr.ph.split

.loopexit:                                        ; preds = %45, %29, %mi_bitmap_mask_.exit, %.thread, %4
  %.0 = phi i1 [ false, %4 ], [ true, %.thread ], [ false, %mi_bitmap_mask_.exit ], [ false, %29 ], [ false, %45 ]
  ret i1 %.0
}